target datalayout = "e-m:e-p270:32:32-p271:32:32-p272:64:64-i64:64-i128:128-f80:128-n8:16:32:64-S128"
target triple = "x86_64-pc-linux-gnu"

%struct._VAConfigAttrib = type { i32, i32 }
%struct.AVCodecContext = type { ptr, i32, i32, ptr, i32, i32, ptr, ptr, ptr, i64, i32, i32, ptr, i32, %struct.AVRational, %struct.AVRational, %struct.AVRational, i32, i32, i32, i32, i32, %struct.AVRational, i32, i32, i32, i32, i32, i32, i32, i32, i32, i32, i32, ptr, ptr, i32, float, float, float, float, float, float, float, float, float, i32, i32, i32, i32, i32, i32, i32, i32, i32, i32, i32, i32, ptr, ptr, ptr, i32, i32, i32, i32, i32, i32, i32, i32, i32, i32, %struct.AVChannelLayout, i32, i32, i32, i32, i32, i32, i32, i32, ptr, i32, i32, i32, float, float, i32, i32, i32, i32, i32, ptr, i64, i64, float, float, i32, i32, ptr, ptr, i32, i32, i32, i32, i32, ptr, ptr, ptr, ptr, i32, i32, [8 x i64], i32, i32, i32, i32, i32, i32, i32, ptr, ptr, i32, i32, i32, i32, i32, i32, i32, i32, i32, i32, ptr, ptr, i32, i32, ptr, ptr, ptr, ptr, i32, i32, i64, i32, i32, i64, ptr, i64, ptr, i32, ptr, i32 }
%struct.AVRational = type { i32, i32 }
%struct.AVChannelLayout = type { i32, i32, %union.anon.1, ptr }
%union.anon.1 = type { i64 }
%struct.VAAPIEncodeContext = type { %struct.FFHWBaseEncodeContext, ptr, i32, i32, i32, i32, i32, i32, ptr, ptr, i32, i32, i32, i32, i32, i32, [4 x %struct._VAConfigAttrib], i32, i32, i32, ptr, ptr, [4 x i32], [4 x ptr], [4 x i64], i32, %struct._VAEncMiscParameterRateControl, %struct._VAEncMiscParameterHRD, %struct._VAEncMiscParameterFrameRate, %struct._VAEncMiscParameterBufferMaxFrameSize, %struct._VAEncMiscParameterBufferQualityLevel, ptr, ptr, i32, i32, i32, i32, i32, i32, [20 x i32], [22 x i32], [21 x i32], [23 x i32], i32, i32, ptr, i32, i32 }
%struct.FFHWBaseEncodeContext = type { ptr, ptr, ptr, i32, i32, i32, i32, i32, i32, ptr, ptr, ptr, ptr, ptr, ptr, ptr, ptr, [2 x ptr], i32, i64, i64, i64, i64, i64, i64, i64, [112 x i64], i32, i32, i32, i32, i32, i32, i32, i32, i32, i32, i32, i32, i32, i32, i32, i32, ptr, i32, ptr, i32, ptr }
%struct._VAEncMiscParameterRateControl = type { i32, i32, i32, i32, i32, i32, %union.anon.2, i32, i32, i32, i32, [4 x i32] }
%union.anon.2 = type { %struct.anon }
%struct.anon = type { i32 }
%struct._VAEncMiscParameterHRD = type { i32, i32, [4 x i32] }
%struct._VAEncMiscParameterFrameRate = type { i32, %union.anon.3, [4 x i32] }
%union.anon.3 = type { %struct.anon.4 }
%struct.anon.4 = type { i32 }
%struct._VAEncMiscParameterBufferMaxFrameSize = type { i32, i32, [4 x i32] }
%struct._VAEncMiscParameterBufferQualityLevel = type { i32, [4 x i32] }
%struct.VAAPIEncodeAV1Context = type { %struct.VAAPIEncodeContext, %struct.AV1RawOBU, %struct.AV1RawOBU, [4 x %struct.AV1RawOBU], i32, ptr, %struct.CodedBitstreamFragment, %union._VAConfigAttribValEncAV1, %union._VAConfigAttribValEncAV1Ext1, %union._VAConfigAttribValEncAV1Ext2, [1024 x i8], i64, [1024 x i8], i64, i8, i8, i32, i32, i32, i32, i32, i32, [64 x i8], [64 x i8], i32, i32, i32, i32, i32, i32, i32, i32, i32, i32, i32, i32, i32, i32, i32, i32, i32 }
%struct.AV1RawOBU = type { %struct.AV1RawOBUHeader, i64, %union.anon.5 }
%struct.AV1RawOBUHeader = type { i8, i8, i8, i8, i8, i8, i8, i8 }
%union.anon.5 = type { %struct.AV1RawMetadata }
%struct.AV1RawMetadata = type { i64, %union.anon.6 }
%union.anon.6 = type { %struct.AV1RawMetadataITUTT35, [2800 x i8] }
%struct.AV1RawMetadataITUTT35 = type { i8, i8, ptr, ptr, i64 }
%struct.CodedBitstreamFragment = type { ptr, i64, i64, ptr, i32, i32, ptr }
%union._VAConfigAttribValEncAV1 = type { %struct.anon.7 }
%struct.anon.7 = type { i32 }
%union._VAConfigAttribValEncAV1Ext1 = type { %struct.anon.8 }
%struct.anon.8 = type { i32 }
%union._VAConfigAttribValEncAV1Ext2 = type { %struct.anon.9 }
%struct.anon.9 = type { i32 }

@.str.85 = private unnamed_addr constant [36 x i8] c"Failed to add OBU unit: type = %d.\0A\00", align 1
@.str.86 = private unnamed_addr constant [32 x i8] c"Failed to write packed header.\0A\00", align 1
@.str.87 = private unnamed_addr constant [35 x i8] c"Access unit too large: %zu < %zu.\0A\00", align 1

; Function Attrs: nounwind uwtable
define internal i32 @vaapi_encode_av1_write_obu(ptr noundef %0, ptr noundef %1, ptr noundef %2, ptr noundef %3) #3 {
  %5 = alloca i32, align 4
  %6 = alloca ptr, align 8
  %7 = alloca ptr, align 8
  %8 = alloca ptr, align 8
  %9 = alloca ptr, align 8
  %10 = alloca ptr, align 8
  %11 = alloca i32, align 4
  %12 = alloca i32, align 4
  store ptr %0, ptr %6, align 8, !tbaa !4
  store ptr %1, ptr %7, align 8, !tbaa !339
  store ptr %2, ptr %8, align 8, !tbaa !340
  store ptr %3, ptr %9, align 8, !tbaa !128
  call void @llvm.lifetime.start.p0(i64 8, ptr %10) #12
  %13 = load ptr, ptr %6, align 8, !tbaa !4
  %14 = getelementptr inbounds nuw %struct.AVCodecContext, ptr %13, i32 0, i32 6
  %15 = load ptr, ptr %14, align 8, !tbaa !9
  store ptr %15, ptr %10, align 8, !tbaa !31
  call void @llvm.lifetime.start.p0(i64 4, ptr %11) #12
  %16 = load ptr, ptr %10, align 8, !tbaa !31
  %17 = getelementptr inbounds nuw %struct.VAAPIEncodeAV1Context, ptr %16, i32 0, i32 5
  %18 = load ptr, ptr %17, align 8, !tbaa !74
  %19 = load ptr, ptr %9, align 8, !tbaa !128
  %20 = call i32 @ff_cbs_write_fragment_data(ptr noundef %18, ptr noundef %19)
  store i32 %20, ptr %11, align 4, !tbaa !64
  %21 = load i32, ptr %11, align 4, !tbaa !64
  %22 = icmp slt i32 %21, 0
  br i1 %22, label %23, label %26

23:                                               ; preds = %4
  %24 = load ptr, ptr %6, align 8, !tbaa !4
  call void (ptr, i32, ptr, ...) @av_log(ptr noundef %24, i32 noundef 16, ptr noundef @.str.86)
  %25 = load i32, ptr %11, align 4, !tbaa !64
  store i32 %25, ptr %5, align 4
  store i32 1, ptr %12, align 4
  br label %63

26:                                               ; preds = %4
  %27 = load ptr, ptr %9, align 8, !tbaa !128
  %28 = getelementptr inbounds nuw %struct.CodedBitstreamFragment, ptr %27, i32 0, i32 1
  %29 = load i64, ptr %28, align 8, !tbaa !354
  %30 = mul i64 8, %29
  %31 = load ptr, ptr %9, align 8, !tbaa !128
  %32 = getelementptr inbounds nuw %struct.CodedBitstreamFragment, ptr %31, i32 0, i32 2
  %33 = load i64, ptr %32, align 8, !tbaa !355
  %34 = sub i64 %30, %33
  %35 = icmp ult i64 8192, %34
  br i1 %35, label %36, label %46

36:                                               ; preds = %26
  %37 = load ptr, ptr %6, align 8, !tbaa !4
  %38 = load ptr, ptr %9, align 8, !tbaa !128
  %39 = getelementptr inbounds nuw %struct.CodedBitstreamFragment, ptr %38, i32 0, i32 1
  %40 = load i64, ptr %39, align 8, !tbaa !354
  %41 = mul i64 8, %40
  %42 = load ptr, ptr %9, align 8, !tbaa !128
  %43 = getelementptr inbounds nuw %struct.CodedBitstreamFragment, ptr %42, i32 0, i32 2
  %44 = load i64, ptr %43, align 8, !tbaa !355
  %45 = sub i64 %41, %44
  call void (ptr, i32, ptr, ...) @av_log(ptr noundef %37, i32 noundef 16, ptr noundef @.str.87, i64 noundef 8192, i64 noundef %45)
  store i32 -28, ptr %5, align 4
  store i32 1, ptr %12, align 4
  br label %63

46:                                               ; preds = %26
  %47 = load ptr, ptr %7, align 8, !tbaa !339
  %48 = load ptr, ptr %9, align 8, !tbaa !128
  %49 = getelementptr inbounds nuw %struct.CodedBitstreamFragment, ptr %48, i32 0, i32 0
  %50 = load ptr, ptr %49, align 8, !tbaa !356
  %51 = load ptr, ptr %9, align 8, !tbaa !128
  %52 = getelementptr inbounds nuw %struct.CodedBitstreamFragment, ptr %51, i32 0, i32 1
  %53 = load i64, ptr %52, align 8, !tbaa !354
  call void @llvm.memcpy.p0.p0.i64(ptr align 1 %47, ptr align 1 %50, i64 %53, i1 false)
  %54 = load ptr, ptr %9, align 8, !tbaa !128
  %55 = getelementptr inbounds nuw %struct.CodedBitstreamFragment, ptr %54, i32 0, i32 1
  %56 = load i64, ptr %55, align 8, !tbaa !354
  %57 = mul i64 8, %56
  %58 = load ptr, ptr %9, align 8, !tbaa !128
  %59 = getelementptr inbounds nuw %struct.CodedBitstreamFragment, ptr %58, i32 0, i32 2
  %60 = load i64, ptr %59, align 8, !tbaa !355
  %61 = sub i64 %57, %60
  %62 = load ptr, ptr %8, align 8, !tbaa !340
  store i64 %61, ptr %62, align 8, !tbaa !342
  store i32 0, ptr %5, align 4
  store i32 1, ptr %12, align 4
  br label %63

63:                                               ; preds = %46, %36, %23
  call void @llvm.lifetime.end.p0(i64 4, ptr %11) #12
  call void @llvm.lifetime.end.p0(i64 8, ptr %10) #12
  %64 = load i32, ptr %5, align 4
  ret i32 %64
}

; Function Attrs: nounwind uwtable
define internal i32 @vaapi_encode_av1_add_obu(ptr noundef %0, ptr noundef %1, i8 noundef zeroext %2, ptr noundef %3) #3 {
  %5 = alloca i32, align 4
  %6 = alloca ptr, align 8
  %7 = alloca ptr, align 8
  %8 = alloca i8, align 1
  %9 = alloca ptr, align 8
  %10 = alloca i32, align 4
  %11 = alloca i32, align 4
  store ptr %0, ptr %6, align 8, !tbaa !4
  store ptr %1, ptr %7, align 8, !tbaa !128
  store i8 %2, ptr %8, align 1, !tbaa !73
  store ptr %3, ptr %9, align 8, !tbaa !347
  call void @llvm.lifetime.start.p0(i64 4, ptr %10) #12
  %12 = load ptr, ptr %7, align 8, !tbaa !128
  %13 = load i8, ptr %8, align 1, !tbaa !73
  %14 = zext i8 %13 to i32
  %15 = load ptr, ptr %9, align 8, !tbaa !347
  %16 = call i32 @ff_cbs_insert_unit_content(ptr noundef %12, i32 noundef -1, i32 noundef %14, ptr noundef %15, ptr noundef null)
  store i32 %16, ptr %10, align 4, !tbaa !64
  %17 = load i32, ptr %10, align 4, !tbaa !64
  %18 = icmp slt i32 %17, 0
  br i1 %18, label %19, label %24

19:                                               ; preds = %4
  %20 = load ptr, ptr %6, align 8, !tbaa !4
  %21 = load i8, ptr %8, align 1, !tbaa !73
  %22 = zext i8 %21 to i32
  call void (ptr, i32, ptr, ...) @av_log(ptr noundef %20, i32 noundef 16, ptr noundef @.str.85, i32 noundef %22)
  %23 = load i32, ptr %10, align 4, !tbaa !64
  store i32 %23, ptr %5, align 4
  store i32 1, ptr %11, align 4
  br label %25

24:                                               ; preds = %4
  store i32 0, ptr %5, align 4
  store i32 1, ptr %11, align 4
  br label %25

25:                                               ; preds = %24, %19
  call void @llvm.lifetime.end.p0(i64 4, ptr %10) #12
  %26 = load i32, ptr %5, align 4
  ret i32 %26
}

; Function Attrs: nounwind uwtable
define internal i32 @vaapi_encode_av1_write_extra_header(ptr noundef %0, ptr noundef %1, i32 noundef %2, ptr noundef %3, ptr noundef %4, ptr noundef %5) #3 {
  %7 = alloca i32, align 4
  %8 = alloca ptr, align 8
  %9 = alloca ptr, align 8
  %10 = alloca i32, align 4
  %11 = alloca ptr, align 8
  %12 = alloca ptr, align 8
  %13 = alloca ptr, align 8
  %14 = alloca ptr, align 8
  %15 = alloca ptr, align 8
  %16 = alloca ptr, align 8
  %17 = alloca [1024 x i8], align 16
  %18 = alloca i64, align 8
  %19 = alloca i32, align 4
  %20 = alloca i32, align 4
  store ptr %0, ptr %8, align 8, !tbaa !4
  store ptr %1, ptr %9, align 8, !tbaa !197
  store i32 %2, ptr %10, align 4, !tbaa !64
  store ptr %3, ptr %11, align 8, !tbaa !346
  store ptr %4, ptr %12, align 8, !tbaa !339
  store ptr %5, ptr %13, align 8, !tbaa !340
  call void @llvm.lifetime.start.p0(i64 8, ptr %14) #12
  %21 = load ptr, ptr %8, align 8, !tbaa !4
  %22 = getelementptr inbounds nuw %struct.AVCodecContext, ptr %21, i32 0, i32 6
  %23 = load ptr, ptr %22, align 8, !tbaa !9
  store ptr %23, ptr %14, align 8, !tbaa !31
  call void @llvm.lifetime.start.p0(i64 8, ptr %15) #12
  %24 = load ptr, ptr %14, align 8, !tbaa !31
  %25 = getelementptr inbounds nuw %struct.VAAPIEncodeAV1Context, ptr %24, i32 0, i32 6
  store ptr %25, ptr %15, align 8, !tbaa !128
  call void @llvm.lifetime.start.p0(i64 8, ptr %16) #12
  call void @llvm.lifetime.start.p0(i64 1024, ptr %17) #12
  call void @llvm.lifetime.start.p0(i64 8, ptr %18) #12
  call void @llvm.lifetime.start.p0(i64 4, ptr %19) #12
  store i32 0, ptr %19, align 4, !tbaa !64
  %26 = load i32, ptr %10, align 4, !tbaa !64
  %27 = load ptr, ptr %14, align 8, !tbaa !31
  %28 = getelementptr inbounds nuw %struct.VAAPIEncodeAV1Context, ptr %27, i32 0, i32 4
  %29 = load i32, ptr %28, align 8, !tbaa !286
  %30 = icmp sge i32 %26, %29
  br i1 %30, label %31, label %32

31:                                               ; preds = %6
  store i32 -541478725, ptr %7, align 4
  store i32 1, ptr %20, align 4
  br label %62

32:                                               ; preds = %6
  %33 = load ptr, ptr %14, align 8, !tbaa !31
  %34 = getelementptr inbounds nuw %struct.VAAPIEncodeAV1Context, ptr %33, i32 0, i32 3
  %35 = load i32, ptr %10, align 4, !tbaa !64
  %36 = sext i32 %35 to i64
  %37 = getelementptr inbounds [4 x %struct.AV1RawOBU], ptr %34, i64 0, i64 %36
  store ptr %37, ptr %16, align 8, !tbaa !121
  %38 = load ptr, ptr %8, align 8, !tbaa !4
  %39 = load ptr, ptr %15, align 8, !tbaa !128
  %40 = load ptr, ptr %16, align 8, !tbaa !121
  %41 = call i32 @vaapi_encode_av1_add_obu(ptr noundef %38, ptr noundef %39, i8 noundef zeroext 5, ptr noundef %40)
  store i32 %41, ptr %19, align 4, !tbaa !64
  %42 = load i32, ptr %19, align 4, !tbaa !64
  %43 = icmp slt i32 %42, 0
  br i1 %43, label %44, label %45

44:                                               ; preds = %32
  br label %59

45:                                               ; preds = %32
  %46 = load ptr, ptr %8, align 8, !tbaa !4
  %47 = getelementptr inbounds [1024 x i8], ptr %17, i64 0, i64 0
  %48 = load ptr, ptr %15, align 8, !tbaa !128
  %49 = call i32 @vaapi_encode_av1_write_obu(ptr noundef %46, ptr noundef %47, ptr noundef %18, ptr noundef %48)
  store i32 %49, ptr %19, align 4, !tbaa !64
  %50 = load i32, ptr %19, align 4, !tbaa !64
  %51 = icmp slt i32 %50, 0
  br i1 %51, label %52, label %53

52:                                               ; preds = %45
  br label %59

53:                                               ; preds = %45
  %54 = load ptr, ptr %12, align 8, !tbaa !339
  %55 = getelementptr inbounds [1024 x i8], ptr %17, i64 0, i64 0
  call void @llvm.memcpy.p0.p0.i64(ptr align 1 %54, ptr align 16 %55, i64 1024, i1 false)
  %56 = load i64, ptr %18, align 8, !tbaa !342
  %57 = load ptr, ptr %13, align 8, !tbaa !340
  store i64 %56, ptr %57, align 8, !tbaa !342
  %58 = load ptr, ptr %11, align 8, !tbaa !346
  store i32 4, ptr %58, align 4, !tbaa !64
  br label %59

59:                                               ; preds = %53, %52, %44
  %60 = load ptr, ptr %15, align 8, !tbaa !128
  call void @ff_cbs_fragment_reset(ptr noundef %60)
  %61 = load i32, ptr %19, align 4, !tbaa !64
  store i32 %61, ptr %7, align 4
  store i32 1, ptr %20, align 4
  br label %62

62:                                               ; preds = %59, %31
  call void @llvm.lifetime.end.p0(i64 4, ptr %19) #12
  call void @llvm.lifetime.end.p0(i64 8, ptr %18) #12
  call void @llvm.lifetime.end.p0(i64 1024, ptr %17) #12
  call void @llvm.lifetime.end.p0(i64 8, ptr %16) #12
  call void @llvm.lifetime.end.p0(i64 8, ptr %15) #12
  call void @llvm.lifetime.end.p0(i64 8, ptr %14) #12
  %63 = load i32, ptr %7, align 4
  ret i32 %63
}