; Function Attrs: nounwind uwtable
define internal range(i32 -2147483648, 1) i32 @vaapi_encode_av1_write_extra_header(ptr noundef %0, ptr readnone captures(none) %1, i32 noundef %2, ptr noundef writeonly captures(none) %3, ptr noundef writeonly captures(none) %4, ptr noundef writeonly captures(none) %5) #4 {
  %7 = alloca [1024 x i8], align 16
  %8 = getelementptr inbounds nuw i8, ptr %0, i64 32
  %9 = load ptr, ptr %8, align 8, !tbaa !4
  %10 = getelementptr inbounds nuw i8, ptr %9, i64 19128
  call void @llvm.lifetime.start.p0(i64 1024, ptr nonnull %7)
  %11 = getelementptr inbounds nuw i8, ptr %9, i64 19112
  %12 = load i32, ptr %11, align 8, !tbaa !246
  %.not = icmp slt i32 %2, %12
  br i1 %.not, label %13, label %36

13:                                               ; preds = %6
  %14 = getelementptr inbounds nuw i8, ptr %9, i64 7688
  %15 = sext i32 %2 to i64
  %16 = getelementptr inbounds [4 x %struct.AV1RawOBU], ptr %14, i64 0, i64 %15
  %17 = tail call i32 @ff_cbs_insert_unit_content(ptr noundef nonnull %10, i32 noundef -1, i32 noundef 5, ptr noundef nonnull %16, ptr noundef null) #14
  %18 = icmp slt i32 %17, 0
  br i1 %18, label %vaapi_encode_av1_add_obu.exit.thread, label %vaapi_encode_av1_add_obu.exit

vaapi_encode_av1_add_obu.exit.thread:             ; preds = %13
  tail call void (ptr, i32, ptr, ...) @av_log(ptr noundef nonnull %0, i32 noundef 16, ptr noundef nonnull @.str.85, i32 noundef 5) #14
  br label %vaapi_encode_av1_write_obu.exit.thread

vaapi_encode_av1_add_obu.exit:                    ; preds = %13
  %19 = load ptr, ptr %8, align 8, !tbaa !4
  %20 = getelementptr inbounds nuw i8, ptr %19, i64 19120
  %21 = load ptr, ptr %20, align 8, !tbaa !67
  %22 = tail call i32 @ff_cbs_write_fragment_data(ptr noundef %21, ptr noundef nonnull %10) #14
  %23 = icmp slt i32 %22, 0
  br i1 %23, label %24, label %25

24:                                               ; preds = %vaapi_encode_av1_add_obu.exit
  tail call void (ptr, i32, ptr, ...) @av_log(ptr noundef nonnull %0, i32 noundef 16, ptr noundef nonnull @.str.86) #14
  br label %vaapi_encode_av1_write_obu.exit.thread

25:                                               ; preds = %vaapi_encode_av1_add_obu.exit
  %26 = getelementptr inbounds nuw i8, ptr %9, i64 19136
  %27 = load i64, ptr %26, align 8, !tbaa !163
  %28 = shl i64 %27, 3
  %29 = getelementptr inbounds nuw i8, ptr %9, i64 19144
  %30 = load i64, ptr %29, align 8, !tbaa !164
  %31 = sub i64 %28, %30
  %32 = icmp ugt i64 %31, 8192
  br i1 %32, label %33, label %34

33:                                               ; preds = %25
  tail call void (ptr, i32, ptr, ...) @av_log(ptr noundef nonnull %0, i32 noundef 16, ptr noundef nonnull @.str.87, i64 noundef 8192, i64 noundef %31) #14
  br label %vaapi_encode_av1_write_obu.exit.thread

34:                                               ; preds = %25
  %35 = load ptr, ptr %10, align 8, !tbaa !165
  call void @llvm.memcpy.p0.p0.i64(ptr nonnull align 16 %7, ptr align 1 %35, i64 %27, i1 false)
  call void @llvm.memcpy.p0.p0.i64(ptr noundef nonnull align 1 dereferenceable(1024) %4, ptr noundef nonnull align 16 dereferenceable(1024) %7, i64 1024, i1 false)
  store i64 %31, ptr %5, align 8, !tbaa !166
  store i32 4, ptr %3, align 4, !tbaa !111
  br label %vaapi_encode_av1_write_obu.exit.thread

vaapi_encode_av1_write_obu.exit.thread:           ; preds = %33, %24, %vaapi_encode_av1_add_obu.exit.thread, %34
  %.0 = phi i32 [ 0, %34 ], [ %17, %vaapi_encode_av1_add_obu.exit.thread ], [ -28, %33 ], [ %22, %24 ]
  tail call void @ff_cbs_fragment_reset(ptr noundef nonnull %10) #14
  br label %36

36:                                               ; preds = %6, %vaapi_encode_av1_write_obu.exit.thread
  %.018 = phi i32 [ %.0, %vaapi_encode_av1_write_obu.exit.thread ], [ -541478725, %6 ]
  call void @llvm.lifetime.end.p0(i64 1024, ptr nonnull %7)
  ret i32 %.018
}